; Function Attrs: mustprogress uwtable
define hidden noundef i64 @_ZN4cvc58internal6theory5arith6linear9DioSolver28applyAllSubstitutionsToIndexEm(ptr noundef nonnull align 8 dereferenceable(1032) %0, i64 noundef %1) local_unnamed_addr #3 align 2 {
  %3 = getelementptr inbounds nuw i8, ptr %0, i64 392
  %4 = getelementptr inbounds nuw i8, ptr %0, i64 400
  %5 = load ptr, ptr %4, align 8, !tbaa !93
  %6 = load ptr, ptr %3, align 8, !tbaa !96
  %.not = icmp eq ptr %5, %6
  br i1 %.not, label %._crit_edge, label %.lr.ph.preheader

.lr.ph.preheader:                                 ; preds = %2
  %7 = ptrtoint ptr %5 to i64
  %8 = ptrtoint ptr %6 to i64
  %9 = sub i64 %7, %8
  %10 = sdiv exact i64 %9, 24
  %umax = tail call i64 @llvm.umax.i64(i64 %10, i64 1)
  br label %.lr.ph

._crit_edge:                                      ; preds = %.lr.ph, %2
  %.0.lcssa = phi i64 [ %1, %2 ], [ %11, %.lr.ph ]
  ret i64 %.0.lcssa

.lr.ph:                                           ; preds = %.lr.ph.preheader, %.lr.ph
  %.09 = phi i64 [ %11, %.lr.ph ], [ %1, %.lr.ph.preheader ]
  %.078 = phi i64 [ %12, %.lr.ph ], [ 0, %.lr.ph.preheader ]
  %11 = tail call noundef i64 @_ZN4cvc58internal6theory5arith6linear9DioSolver17applySubstitutionEmm(ptr noundef nonnull align 8 dereferenceable(1032) %0, i64 noundef %.078, i64 noundef %.09)
  %12 = add nuw i64 %.078, 1
  %exitcond.not = icmp eq i64 %12, %umax
  br i1 %exitcond.not, label %._crit_edge, label %.lr.ph, !llvm.loop !196
}